target datalayout = "e-m:e-p270:32:32-p271:32:32-p272:64:64-i64:64-i128:128-f80:128-n8:16:32:64-S128"
target triple = "x86_64-pc-linux-gnu"

%class.DCmdWithParser = type { %class.DCmd.base, %class.DCmdParser }
%class.DCmd.base = type <{ ptr, ptr, i8 }>
%class.DCmdParser = type { ptr, ptr }
%class.DCmdArgument = type { %class.GenDCmdArgument.base, i8, [4 x i8] }
%class.GenDCmdArgument.base = type <{ ptr, ptr, ptr, ptr, ptr, ptr, i8, i8, i8 }>
%class.DCmd = type <{ ptr, ptr, i8, [7 x i8] }>
%class.GenDCmdArgument = type <{ ptr, ptr, ptr, ptr, ptr, ptr, i8, i8, i8, [5 x i8] }>
%class.CompilationMemoryStatisticDCmd = type { %class.DCmdWithParser, %class.DCmdArgument, %class.DCmdArgument.102 }
%class.DCmdArgument.102 = type { %class.GenDCmdArgument.base, %class.MemorySizeArgument }
%class.MemorySizeArgument = type { i64, i64, i8 }

; Function Attrs: mustprogress nounwind uwtable
define linkonce_odr hidden noundef ptr @_ZNK4DCmd6outputEv(ptr noundef nonnull align 8 dereferenceable(17) %0) #1 comdat align 2 {
  %2 = alloca ptr, align 8
  store ptr %0, ptr %2, align 8
  %3 = load ptr, ptr %2, align 8
  %4 = getelementptr inbounds %class.DCmd, ptr %3, i32 0, i32 1
  %5 = load ptr, ptr %4, align 8
  ret ptr %5
}

; Function Attrs: mustprogress nounwind uwtable
define linkonce_odr hidden void @_ZNK12DCmdArgumentI18MemorySizeArgumentE5valueEv(ptr dead_on_unwind noalias writable sret(%class.MemorySizeArgument) align 8 %0, ptr noundef nonnull align 8 dereferenceable(80) %1) #1 comdat align 2 {
  %3 = alloca ptr, align 8
  store ptr %1, ptr %3, align 8
  %4 = load ptr, ptr %3, align 8
  %5 = getelementptr inbounds %class.DCmdArgument.102, ptr %4, i32 0, i32 1
  call void @llvm.memcpy.p0.p0.i64(ptr align 8 %0, ptr align 8 %5, i64 24, i1 false)
  ret void
}

; Function Attrs: mustprogress nounwind uwtable
define linkonce_odr hidden noundef zeroext i1 @_ZNK15GenDCmdArgument9has_valueEv(ptr noundef nonnull align 8 dereferenceable(51) %0) #1 comdat align 2 {
  %2 = alloca ptr, align 8
  store ptr %0, ptr %2, align 8
  %3 = load ptr, ptr %2, align 8
  %4 = getelementptr inbounds %class.GenDCmdArgument, ptr %3, i32 0, i32 6
  %5 = load i8, ptr %4, align 8
  %6 = trunc i8 %5 to i1
  br i1 %6, label %11, label %7

7:                                                ; preds = %1
  %8 = getelementptr inbounds %class.GenDCmdArgument, ptr %3, i32 0, i32 5
  %9 = load ptr, ptr %8, align 8
  %10 = icmp ne ptr %9, null
  br label %11

11:                                               ; preds = %7, %1
  %12 = phi i1 [ true, %1 ], [ %10, %7 ]
  ret i1 %12
}

; Function Attrs: mustprogress nounwind uwtable
define linkonce_odr hidden noundef zeroext i1 @_ZNK12DCmdArgumentIbE5valueEv(ptr noundef nonnull align 8 dereferenceable(52) %0) #1 comdat align 2 {
  %2 = alloca ptr, align 8
  store ptr %0, ptr %2, align 8
  %3 = load ptr, ptr %2, align 8
  %4 = getelementptr inbounds %class.DCmdArgument, ptr %3, i32 0, i32 1
  %5 = load i8, ptr %4, align 1
  %6 = trunc i8 %5 to i1
  ret i1 %6
}

; Function Attrs: mustprogress nounwind uwtable
define hidden void @_ZN30CompilationMemoryStatisticDCmd7executeE10DCmdSourceP10JavaThread(ptr noundef nonnull align 8 dereferenceable(176) %0, i32 noundef %1, ptr noundef %2) unnamed_addr #1 align 2 {
  %4 = alloca ptr, align 8
  %5 = alloca i32, align 4
  %6 = alloca ptr, align 8
  %7 = alloca i8, align 1
  %8 = alloca i64, align 8
  %9 = alloca %class.MemorySizeArgument, align 8
  store ptr %0, ptr %4, align 8
  store i32 %1, ptr %5, align 4
  store ptr %2, ptr %6, align 8
  %10 = load ptr, ptr %4, align 8
  %11 = getelementptr inbounds %class.CompilationMemoryStatisticDCmd, ptr %10, i32 0, i32 1
  %12 = call noundef zeroext i1 @_ZNK12DCmdArgumentIbE5valueEv(ptr noundef nonnull align 8 dereferenceable(52) %11)
  %13 = zext i1 %12 to i8
  store i8 %13, ptr %7, align 1
  %14 = getelementptr inbounds %class.CompilationMemoryStatisticDCmd, ptr %10, i32 0, i32 2
  %15 = call noundef zeroext i1 @_ZNK15GenDCmdArgument9has_valueEv(ptr noundef nonnull align 8 dereferenceable(51) %14)
  br i1 %15, label %16, label %20

16:                                               ; preds = %3
  %17 = getelementptr inbounds %class.CompilationMemoryStatisticDCmd, ptr %10, i32 0, i32 2
  call void @_ZNK12DCmdArgumentI18MemorySizeArgumentE5valueEv(ptr dead_on_unwind writable sret(%class.MemorySizeArgument) align 8 %9, ptr noundef nonnull align 8 dereferenceable(80) %17)
  %18 = getelementptr inbounds %class.MemorySizeArgument, ptr %9, i32 0, i32 0
  %19 = load i64, ptr %18, align 8
  br label %21

20:                                               ; preds = %3
  br label %21

21:                                               ; preds = %20, %16
  %22 = phi i64 [ %19, %16 ], [ 0, %20 ]
  store i64 %22, ptr %8, align 8
  %23 = call noundef ptr @_ZNK4DCmd6outputEv(ptr noundef nonnull align 8 dereferenceable(17) %10)
  %24 = load i8, ptr %7, align 1
  %25 = trunc i8 %24 to i1
  %26 = load i64, ptr %8, align 8
  call void @_ZN26CompilationMemoryStatistic17print_all_by_sizeEP12outputStreambm(ptr noundef %23, i1 noundef zeroext %25, i64 noundef %26)
  ret void
}