; Function Attrs: mustprogress nounwind uwtable
define hidden void @_ZN30CompilationMemoryStatisticDCmd7executeE10DCmdSourceP10JavaThread(ptr nocapture noundef nonnull readonly align 8 dereferenceable(176) %0, i32 %1, ptr nocapture readnone %2) unnamed_addr #0 align 2 {
  %4 = getelementptr inbounds i8, ptr %0, i64 91
  %5 = load i8, ptr %4, align 1
  %6 = getelementptr inbounds i8, ptr %0, i64 144
  %7 = load i8, ptr %6, align 8
  %8 = trunc i8 %7 to i1
  %9 = getelementptr inbounds i8, ptr %0, i64 136
  %10 = load ptr, ptr %9, align 8
  %11 = icmp ne ptr %10, null
  %12 = select i1 %8, i1 true, i1 %11
  %13 = getelementptr inbounds i8, ptr %0, i64 152
  %.sroa.0.0.copyload = load i64, ptr %13, align 8
  %14 = select i1 %12, i64 %.sroa.0.0.copyload, i64 0
  %15 = trunc i8 %5 to i1
  %16 = getelementptr inbounds i8, ptr %0, i64 8
  %17 = load ptr, ptr %16, align 8
  tail call void @_ZN26CompilationMemoryStatistic17print_all_by_sizeEP12outputStreambm(ptr noundef %17, i1 noundef zeroext %15, i64 noundef %14) #17
  ret void
}